#include <math.h>
#include <stdio.h>
#include <stdlib.h>
#include <string.h>


main()
{
	int n;
	scanf("%d",&n);
	while(1)
	{
		if(n==1) {printf("End");break;}
		if(n%2)
		{
			printf("%d*3+1=%d\n",n,3*n+1);
			n=3*n+1;
		}
		else 
		{
			printf("%d/2=%d\n",n,n/2);
			n/=2;
		}
	}
}

