; ModuleID = '34/102.c'
source_filename = "34/102.c"
target datalayout = "e-m:e-p270:32:32-p271:32:32-p272:64:64-i64:64-f80:128-n8:16:32:64-S128"
target triple = "x86_64-pc-linux-gnu"

@.str = private unnamed_addr constant [3 x i8] c"%d\00", align 1
@.str.1 = private unnamed_addr constant [4 x i8] c"End\00", align 1
@.str.2 = private unnamed_addr constant [11 x i8] c"%d*3+1=%d\0A\00", align 1
@.str.3 = private unnamed_addr constant [9 x i8] c"%d/2=%d\0A\00", align 1

; Function Attrs: noinline nounwind uwtable
define dso_local i32 @main() #0 {
  %1 = alloca i32, align 4
  %2 = alloca i32, align 4
  store i32 0, i32* %1, align 4
  %3 = call i32 (i8*, ...) @__isoc99_scanf(i8* getelementptr inbounds ([3 x i8], [3 x i8]* @.str, i64 0, i64 0), i32* %2)
  br label %4

4:                                                ; preds = %0, %29
  %5 = load i32, i32* %2, align 4
  %6 = icmp eq i32 %5, 1
  br i1 %6, label %7, label %9

7:                                                ; preds = %4
  %8 = call i32 (i8*, ...) @printf(i8* getelementptr inbounds ([4 x i8], [4 x i8]* @.str.1, i64 0, i64 0))
  br label %30

9:                                                ; preds = %4
  %10 = load i32, i32* %2, align 4
  %11 = srem i32 %10, 2
  %12 = icmp ne i32 %11, 0
  br i1 %12, label %13, label %22

13:                                               ; preds = %9
  %14 = load i32, i32* %2, align 4
  %15 = load i32, i32* %2, align 4
  %16 = mul nsw i32 3, %15
  %17 = add nsw i32 %16, 1
  %18 = call i32 (i8*, ...) @printf(i8* getelementptr inbounds ([11 x i8], [11 x i8]* @.str.2, i64 0, i64 0), i32 %14, i32 %17)
  %19 = load i32, i32* %2, align 4
  %20 = mul nsw i32 3, %19
  %21 = add nsw i32 %20, 1
  store i32 %21, i32* %2, align 4
  br label %29

22:                                               ; preds = %9
  %23 = load i32, i32* %2, align 4
  %24 = load i32, i32* %2, align 4
  %25 = sdiv i32 %24, 2
  %26 = call i32 (i8*, ...) @printf(i8* getelementptr inbounds ([9 x i8], [9 x i8]* @.str.3, i64 0, i64 0), i32 %23, i32 %25)
  %27 = load i32, i32* %2, align 4
  %28 = sdiv i32 %27, 2
  store i32 %28, i32* %2, align 4
  br label %29

29:                                               ; preds = %22, %13
  br label %4

30:                                               ; preds = %7
  %31 = load i32, i32* %1, align 4
  ret i32 %31
}

declare dso_local i32 @__isoc99_scanf(i8*, ...) #1

declare dso_local i32 @printf(i8*, ...) #1


!llvm.module.flags = !{!0}
!llvm.ident = !{!1}

!0 = !{i32 1, !"wchar_size", i32 4}
!1 = !{!"clang version 10.0.0-4ubuntu1 "}
